target datalayout = "e-m:e-p270:32:32-p271:32:32-p272:64:64-i64:64-i128:128-f80:128-n8:16:32:64-S128"
target triple = "x86_64-pc-linux-gnu"

%struct._zend_ssa = type { %struct._zend_cfg, i32, i32, ptr, ptr, ptr, ptr }
%struct._zend_cfg = type { i32, i32, ptr, ptr, ptr, i32 }
%struct._zend_ssa_op = type { i32, i32, i32, i32, i32, i32, i32, i32, i32 }
%struct._zend_ssa_var = type { i32, i32, i32, i32, ptr, ptr, ptr, i8 }

; Function Attrs: nounwind uwtable
define internal zeroext i1 @variable_defined_or_used_in_range(ptr noundef %0, i32 noundef %1, i32 noundef %2, i32 noundef %3) #0 {
  %5 = alloca i1, align 1
  %6 = alloca ptr, align 8
  %7 = alloca i32, align 4
  %8 = alloca i32, align 4
  %9 = alloca i32, align 4
  %10 = alloca ptr, align 8
  %11 = alloca i32, align 4
  store ptr %0, ptr %6, align 8, !tbaa !11
  store i32 %1, ptr %7, align 4, !tbaa !42
  store i32 %2, ptr %8, align 4, !tbaa !42
  store i32 %3, ptr %9, align 4, !tbaa !42
  br label %12

12:                                               ; preds = %136, %4
  %13 = load i32, ptr %8, align 4, !tbaa !42
  %14 = load i32, ptr %9, align 4, !tbaa !42
  %15 = icmp slt i32 %13, %14
  br i1 %15, label %16, label %137

16:                                               ; preds = %12
  call void @llvm.lifetime.start.p0(i64 8, ptr %10) #13
  %17 = load ptr, ptr %6, align 8, !tbaa !11
  %18 = getelementptr inbounds nuw %struct._zend_ssa, ptr %17, i32 0, i32 4
  %19 = load ptr, ptr %18, align 8, !tbaa !80
  %20 = load i32, ptr %8, align 4, !tbaa !42
  %21 = sext i32 %20 to i64
  %22 = getelementptr inbounds %struct._zend_ssa_op, ptr %19, i64 %21
  store ptr %22, ptr %10, align 8, !tbaa !81
  %23 = load ptr, ptr %10, align 8, !tbaa !81
  %24 = getelementptr inbounds nuw %struct._zend_ssa_op, ptr %23, i32 0, i32 3
  %25 = load i32, ptr %24, align 4, !tbaa !86
  %26 = icmp sge i32 %25, 0
  br i1 %26, label %27, label %40

27:                                               ; preds = %16
  %28 = load ptr, ptr %6, align 8, !tbaa !11
  %29 = getelementptr inbounds nuw %struct._zend_ssa, ptr %28, i32 0, i32 5
  %30 = load ptr, ptr %29, align 8, !tbaa !84
  %31 = load ptr, ptr %10, align 8, !tbaa !81
  %32 = getelementptr inbounds nuw %struct._zend_ssa_op, ptr %31, i32 0, i32 3
  %33 = load i32, ptr %32, align 4, !tbaa !86
  %34 = sext i32 %33 to i64
  %35 = getelementptr inbounds %struct._zend_ssa_var, ptr %30, i64 %34
  %36 = getelementptr inbounds nuw %struct._zend_ssa_var, ptr %35, i32 0, i32 0
  %37 = load i32, ptr %36, align 8, !tbaa !113
  %38 = load i32, ptr %7, align 4, !tbaa !42
  %39 = icmp eq i32 %37, %38
  br i1 %39, label %130, label %40

40:                                               ; preds = %27, %16
  %41 = load ptr, ptr %10, align 8, !tbaa !81
  %42 = getelementptr inbounds nuw %struct._zend_ssa_op, ptr %41, i32 0, i32 4
  %43 = load i32, ptr %42, align 4, !tbaa !114
  %44 = icmp sge i32 %43, 0
  br i1 %44, label %45, label %58

45:                                               ; preds = %40
  %46 = load ptr, ptr %6, align 8, !tbaa !11
  %47 = getelementptr inbounds nuw %struct._zend_ssa, ptr %46, i32 0, i32 5
  %48 = load ptr, ptr %47, align 8, !tbaa !84
  %49 = load ptr, ptr %10, align 8, !tbaa !81
  %50 = getelementptr inbounds nuw %struct._zend_ssa_op, ptr %49, i32 0, i32 4
  %51 = load i32, ptr %50, align 4, !tbaa !114
  %52 = sext i32 %51 to i64
  %53 = getelementptr inbounds %struct._zend_ssa_var, ptr %48, i64 %52
  %54 = getelementptr inbounds nuw %struct._zend_ssa_var, ptr %53, i32 0, i32 0
  %55 = load i32, ptr %54, align 8, !tbaa !113
  %56 = load i32, ptr %7, align 4, !tbaa !42
  %57 = icmp eq i32 %55, %56
  br i1 %57, label %130, label %58

58:                                               ; preds = %45, %40
  %59 = load ptr, ptr %10, align 8, !tbaa !81
  %60 = getelementptr inbounds nuw %struct._zend_ssa_op, ptr %59, i32 0, i32 5
  %61 = load i32, ptr %60, align 4, !tbaa !93
  %62 = icmp sge i32 %61, 0
  br i1 %62, label %63, label %76

63:                                               ; preds = %58
  %64 = load ptr, ptr %6, align 8, !tbaa !11
  %65 = getelementptr inbounds nuw %struct._zend_ssa, ptr %64, i32 0, i32 5
  %66 = load ptr, ptr %65, align 8, !tbaa !84
  %67 = load ptr, ptr %10, align 8, !tbaa !81
  %68 = getelementptr inbounds nuw %struct._zend_ssa_op, ptr %67, i32 0, i32 5
  %69 = load i32, ptr %68, align 4, !tbaa !93
  %70 = sext i32 %69 to i64
  %71 = getelementptr inbounds %struct._zend_ssa_var, ptr %66, i64 %70
  %72 = getelementptr inbounds nuw %struct._zend_ssa_var, ptr %71, i32 0, i32 0
  %73 = load i32, ptr %72, align 8, !tbaa !113
  %74 = load i32, ptr %7, align 4, !tbaa !42
  %75 = icmp eq i32 %73, %74
  br i1 %75, label %130, label %76

76:                                               ; preds = %63, %58
  %77 = load ptr, ptr %10, align 8, !tbaa !81
  %78 = getelementptr inbounds nuw %struct._zend_ssa_op, ptr %77, i32 0, i32 0
  %79 = load i32, ptr %78, align 4, !tbaa !82
  %80 = icmp sge i32 %79, 0
  br i1 %80, label %81, label %94

81:                                               ; preds = %76
  %82 = load ptr, ptr %6, align 8, !tbaa !11
  %83 = getelementptr inbounds nuw %struct._zend_ssa, ptr %82, i32 0, i32 5
  %84 = load ptr, ptr %83, align 8, !tbaa !84
  %85 = load ptr, ptr %10, align 8, !tbaa !81
  %86 = getelementptr inbounds nuw %struct._zend_ssa_op, ptr %85, i32 0, i32 0
  %87 = load i32, ptr %86, align 4, !tbaa !82
  %88 = sext i32 %87 to i64
  %89 = getelementptr inbounds %struct._zend_ssa_var, ptr %84, i64 %88
  %90 = getelementptr inbounds nuw %struct._zend_ssa_var, ptr %89, i32 0, i32 0
  %91 = load i32, ptr %90, align 8, !tbaa !113
  %92 = load i32, ptr %7, align 4, !tbaa !42
  %93 = icmp eq i32 %91, %92
  br i1 %93, label %130, label %94

94:                                               ; preds = %81, %76
  %95 = load ptr, ptr %10, align 8, !tbaa !81
  %96 = getelementptr inbounds nuw %struct._zend_ssa_op, ptr %95, i32 0, i32 1
  %97 = load i32, ptr %96, align 4, !tbaa !107
  %98 = icmp sge i32 %97, 0
  br i1 %98, label %99, label %112

99:                                               ; preds = %94
  %100 = load ptr, ptr %6, align 8, !tbaa !11
  %101 = getelementptr inbounds nuw %struct._zend_ssa, ptr %100, i32 0, i32 5
  %102 = load ptr, ptr %101, align 8, !tbaa !84
  %103 = load ptr, ptr %10, align 8, !tbaa !81
  %104 = getelementptr inbounds nuw %struct._zend_ssa_op, ptr %103, i32 0, i32 1
  %105 = load i32, ptr %104, align 4, !tbaa !107
  %106 = sext i32 %105 to i64
  %107 = getelementptr inbounds %struct._zend_ssa_var, ptr %102, i64 %106
  %108 = getelementptr inbounds nuw %struct._zend_ssa_var, ptr %107, i32 0, i32 0
  %109 = load i32, ptr %108, align 8, !tbaa !113
  %110 = load i32, ptr %7, align 4, !tbaa !42
  %111 = icmp eq i32 %109, %110
  br i1 %111, label %130, label %112

112:                                              ; preds = %99, %94
  %113 = load ptr, ptr %10, align 8, !tbaa !81
  %114 = getelementptr inbounds nuw %struct._zend_ssa_op, ptr %113, i32 0, i32 2
  %115 = load i32, ptr %114, align 4, !tbaa !110
  %116 = icmp sge i32 %115, 0
  br i1 %116, label %117, label %131

117:                                              ; preds = %112
  %118 = load ptr, ptr %6, align 8, !tbaa !11
  %119 = getelementptr inbounds nuw %struct._zend_ssa, ptr %118, i32 0, i32 5
  %120 = load ptr, ptr %119, align 8, !tbaa !84
  %121 = load ptr, ptr %10, align 8, !tbaa !81
  %122 = getelementptr inbounds nuw %struct._zend_ssa_op, ptr %121, i32 0, i32 2
  %123 = load i32, ptr %122, align 4, !tbaa !110
  %124 = sext i32 %123 to i64
  %125 = getelementptr inbounds %struct._zend_ssa_var, ptr %120, i64 %124
  %126 = getelementptr inbounds nuw %struct._zend_ssa_var, ptr %125, i32 0, i32 0
  %127 = load i32, ptr %126, align 8, !tbaa !113
  %128 = load i32, ptr %7, align 4, !tbaa !42
  %129 = icmp eq i32 %127, %128
  br i1 %129, label %130, label %131

130:                                              ; preds = %117, %99, %81, %63, %45, %27
  store i1 true, ptr %5, align 1
  store i32 1, ptr %11, align 4
  br label %134

131:                                              ; preds = %117, %112
  %132 = load i32, ptr %8, align 4, !tbaa !42
  %133 = add nsw i32 %132, 1
  store i32 %133, ptr %8, align 4, !tbaa !42
  store i32 0, ptr %11, align 4
  br label %134

134:                                              ; preds = %131, %130
  call void @llvm.lifetime.end.p0(i64 8, ptr %10) #13
  %135 = load i32, ptr %11, align 4
  switch i32 %135, label %140 [
    i32 0, label %136
    i32 1, label %138
  ]

136:                                              ; preds = %134
  br label %12

137:                                              ; preds = %12
  store i1 false, ptr %5, align 1
  br label %138

138:                                              ; preds = %137, %134
  %139 = load i1, ptr %5, align 1
  ret i1 %139

140:                                              ; preds = %134
  unreachable
}