; Function Attrs: nofree norecurse nosync nounwind memory(read, inaccessiblemem: none) uwtable
define internal fastcc noundef zeroext i1 @variable_defined_or_used_in_range(ptr noundef readonly captures(none) %0, i32 noundef range(i32 -5, 268435451) %1, i32 noundef range(i32 -2147483647, -2147483648) %2, i32 noundef range(i32 0, -2147483648) %3) unnamed_addr #6 {
  %5 = getelementptr inbounds nuw i8, ptr %0, i64 64
  %6 = icmp slt i32 %2, %3
  br i1 %6, label %.lr.ph, label %.thread

.lr.ph:                                           ; preds = %4
  %7 = getelementptr inbounds nuw i8, ptr %0, i64 56
  %8 = load ptr, ptr %7, align 8, !tbaa !71
  %9 = sext i32 %2 to i64
  br label %10

10:                                               ; preds = %.lr.ph, %70
  %indvars.iv = phi i64 [ %9, %.lr.ph ], [ %indvars.iv.next, %70 ]
  %11 = getelementptr inbounds %struct._zend_ssa_op, ptr %8, i64 %indvars.iv
  %12 = getelementptr inbounds nuw i8, ptr %11, i64 12
  %13 = load i32, ptr %12, align 4, !tbaa !75
  %14 = icmp sgt i32 %13, -1
  br i1 %14, label %15, label %21

15:                                               ; preds = %10
  %16 = load ptr, ptr %5, align 8, !tbaa !74
  %17 = zext nneg i32 %13 to i64
  %18 = getelementptr inbounds nuw %struct._zend_ssa_var, ptr %16, i64 %17
  %19 = load i32, ptr %18, align 8, !tbaa !101
  %20 = icmp eq i32 %19, %1
  br i1 %20, label %.thread, label %21

21:                                               ; preds = %15, %10
  %22 = getelementptr inbounds nuw i8, ptr %11, i64 16
  %23 = load i32, ptr %22, align 4, !tbaa !102
  %24 = icmp sgt i32 %23, -1
  br i1 %24, label %25, label %31

25:                                               ; preds = %21
  %26 = load ptr, ptr %5, align 8, !tbaa !74
  %27 = zext nneg i32 %23 to i64
  %28 = getelementptr inbounds nuw %struct._zend_ssa_var, ptr %26, i64 %27
  %29 = load i32, ptr %28, align 8, !tbaa !101
  %30 = icmp eq i32 %29, %1
  br i1 %30, label %.thread, label %31

31:                                               ; preds = %25, %21
  %32 = getelementptr inbounds nuw i8, ptr %11, i64 20
  %33 = load i32, ptr %32, align 4, !tbaa !82
  %34 = icmp sgt i32 %33, -1
  br i1 %34, label %35, label %41

35:                                               ; preds = %31
  %36 = load ptr, ptr %5, align 8, !tbaa !74
  %37 = zext nneg i32 %33 to i64
  %38 = getelementptr inbounds nuw %struct._zend_ssa_var, ptr %36, i64 %37
  %39 = load i32, ptr %38, align 8, !tbaa !101
  %40 = icmp eq i32 %39, %1
  br i1 %40, label %.thread, label %41

41:                                               ; preds = %35, %31
  %42 = load i32, ptr %11, align 4, !tbaa !72
  %43 = icmp sgt i32 %42, -1
  br i1 %43, label %44, label %50

44:                                               ; preds = %41
  %45 = load ptr, ptr %5, align 8, !tbaa !74
  %46 = zext nneg i32 %42 to i64
  %47 = getelementptr inbounds nuw %struct._zend_ssa_var, ptr %45, i64 %46
  %48 = load i32, ptr %47, align 8, !tbaa !101
  %49 = icmp eq i32 %48, %1
  br i1 %49, label %.thread, label %50

50:                                               ; preds = %44, %41
  %51 = getelementptr inbounds nuw i8, ptr %11, i64 4
  %52 = load i32, ptr %51, align 4, !tbaa !89
  %53 = icmp sgt i32 %52, -1
  br i1 %53, label %54, label %60

54:                                               ; preds = %50
  %55 = load ptr, ptr %5, align 8, !tbaa !74
  %56 = zext nneg i32 %52 to i64
  %57 = getelementptr inbounds nuw %struct._zend_ssa_var, ptr %55, i64 %56
  %58 = load i32, ptr %57, align 8, !tbaa !101
  %59 = icmp eq i32 %58, %1
  br i1 %59, label %.thread, label %60

60:                                               ; preds = %54, %50
  %61 = getelementptr inbounds nuw i8, ptr %11, i64 8
  %62 = load i32, ptr %61, align 4, !tbaa !98
  %63 = icmp sgt i32 %62, -1
  br i1 %63, label %64, label %70

64:                                               ; preds = %60
  %65 = load ptr, ptr %5, align 8, !tbaa !74
  %66 = zext nneg i32 %62 to i64
  %67 = getelementptr inbounds nuw %struct._zend_ssa_var, ptr %65, i64 %66
  %68 = load i32, ptr %67, align 8, !tbaa !101
  %69 = icmp eq i32 %68, %1
  br i1 %69, label %.thread, label %70

70:                                               ; preds = %60, %64
  %indvars.iv.next = add nsw i64 %indvars.iv, 1
  %lftr.wideiv = trunc i64 %indvars.iv.next to i32
  %exitcond.not = icmp eq i32 %3, %lftr.wideiv
  br i1 %exitcond.not, label %.thread, label %10

.thread:                                          ; preds = %70, %64, %54, %44, %35, %25, %15, %4
  %.lcssa = phi i1 [ false, %4 ], [ true, %15 ], [ true, %25 ], [ true, %35 ], [ true, %44 ], [ true, %54 ], [ true, %64 ], [ false, %70 ]
  ret i1 %.lcssa
}